target datalayout = "e-m:e-p270:32:32-p271:32:32-p272:64:64-i64:64-i128:128-f80:128-n8:16:32:64-S128"
target triple = "x86_64-pc-linux-gnu"

%struct.H5Z_class2_t = type { i32, i32, i32, i32, ptr, ptr, ptr, ptr }
%struct.H5O_pline_t = type { %struct.H5O_shared_t, i32, i64, i64, ptr }
%struct.H5O_shared_t = type { i32, ptr, i32, %union.anon.1 }
%union.anon.1 = type { %struct.H5O_mesg_loc_t }
%struct.H5O_mesg_loc_t = type { i32, i64 }
%struct.H5Z_filter_info_t = type { i32, i32, [12 x i8], ptr, i64, [4 x i32], ptr }

@.str = private unnamed_addr constant [97 x i8] c"generated/home/dtcxzyw/WorkSpace/Projects/compilers/llvm-opt-benchmark/bench/hdf5/hdf5/src/H5Z.c\00", align 1
@H5E_PLINE_g = external global i64, align 8
@H5Z_table_g = internal global ptr null, align 8
@H5Z_table_used_g = internal global i64 0, align 8
@H5E_NOTFOUND_g = external global i64, align 8
@H5E_CANAPPLY_g = external global i64, align 8
@H5E_SETLOCAL_g = external global i64, align 8
@__func__.H5Z_find = private unnamed_addr constant [9 x i8] c"H5Z_find\00", align 1
@.str.32 = private unnamed_addr constant [37 x i8] c"required filter %d is not registered\00", align 1
@__func__.H5Z__prelude_callback = private unnamed_addr constant [22 x i8] c"H5Z__prelude_callback\00", align 1
@.str.59 = private unnamed_addr constant [32 x i8] c"required filter was not located\00", align 1
@H5E_NOENCODER_g = external global i64, align 8
@.str.60 = private unnamed_addr constant [41 x i8] c"Filter present but encoding is disabled.\00", align 1
@.str.61 = private unnamed_addr constant [27 x i8] c"error during user callback\00", align 1
@.str.62 = private unnamed_addr constant [34 x i8] c"filter parameters not appropriate\00", align 1

; Function Attrs: nounwind uwtable
define internal i32 @H5Z__find_idx(i32 noundef %0) #0 {
  %2 = alloca i32, align 4
  %3 = alloca i64, align 8
  %4 = alloca i32, align 4
  store i32 %0, ptr %2, align 4
  store i32 -1, ptr %4, align 4
  store i64 0, ptr %3, align 8
  br label %5

5:                                                ; preds = %23, %1
  %6 = load i64, ptr %3, align 8
  %7 = load i64, ptr @H5Z_table_used_g, align 8
  %8 = icmp ult i64 %6, %7
  br i1 %8, label %9, label %26

9:                                                ; preds = %5
  %10 = load ptr, ptr @H5Z_table_g, align 8
  %11 = load i64, ptr %3, align 8
  %12 = getelementptr inbounds %struct.H5Z_class2_t, ptr %10, i64 %11
  %13 = getelementptr inbounds %struct.H5Z_class2_t, ptr %12, i32 0, i32 1
  %14 = load i32, ptr %13, align 4
  %15 = load i32, ptr %2, align 4
  %16 = icmp eq i32 %14, %15
  br i1 %16, label %17, label %22

17:                                               ; preds = %9
  br label %18

18:                                               ; preds = %17
  %19 = load i64, ptr %3, align 8
  %20 = trunc i64 %19 to i32
  store i32 %20, ptr %4, align 4
  br label %27

21:                                               ; No predecessors!
  br label %22

22:                                               ; preds = %21, %9
  br label %23

23:                                               ; preds = %22
  %24 = load i64, ptr %3, align 8
  %25 = add i64 %24, 1
  store i64 %25, ptr %3, align 8
  br label %5

26:                                               ; preds = %5
  br label %27

27:                                               ; preds = %26, %18
  %28 = load i32, ptr %4, align 4
  ret i32 %28
}

; Function Attrs: nounwind uwtable
define ptr @H5Z_find(i32 noundef %0) #0 {
  %2 = alloca i32, align 4
  %3 = alloca i32, align 4
  %4 = alloca ptr, align 8
  %5 = alloca i8, align 1
  store i32 %0, ptr %2, align 4
  store ptr null, ptr %4, align 8
  store i8 0, ptr %5, align 1
  %6 = load i32, ptr %2, align 4
  %7 = call i32 @H5Z__find_idx(i32 noundef %6)
  store i32 %7, ptr %3, align 4
  %8 = icmp slt i32 %7, 0
  br i1 %8, label %9, label %25

9:                                                ; preds = %1
  br label %10

10:                                               ; preds = %9
  br label %11

11:                                               ; preds = %10
  br label %12

12:                                               ; preds = %11
  %13 = load i64, ptr @H5E_PLINE_g, align 8
  %14 = load i64, ptr @H5E_NOTFOUND_g, align 8
  %15 = load i32, ptr %2, align 4
  %16 = call i32 (ptr, ptr, i32, i64, i64, ptr, ...) @H5E_printf_stack(ptr noundef @.str, ptr noundef @__func__.H5Z_find, i32 noundef 1311, i64 noundef %13, i64 noundef %14, ptr noundef @.str.32, i32 noundef %15)
  br label %17

17:                                               ; preds = %12
  store i8 1, ptr %5, align 1
  %18 = load i8, ptr %5, align 1
  %19 = trunc i8 %18 to i1
  %20 = zext i1 %19 to i8
  store i8 %20, ptr %5, align 1
  br label %21

21:                                               ; preds = %17
  br label %22

22:                                               ; preds = %21
  store ptr null, ptr %4, align 8
  br label %30

23:                                               ; No predecessors!
  br label %24

24:                                               ; preds = %23
  br label %25

25:                                               ; preds = %24, %1
  %26 = load ptr, ptr @H5Z_table_g, align 8
  %27 = load i32, ptr %3, align 4
  %28 = sext i32 %27 to i64
  %29 = getelementptr inbounds %struct.H5Z_class2_t, ptr %26, i64 %28
  store ptr %29, ptr %4, align 8
  br label %30

30:                                               ; preds = %25, %22
  %31 = load ptr, ptr %4, align 8
  ret ptr %31
}

; Function Attrs: nounwind uwtable
define internal i32 @H5Z__prelude_callback(ptr noundef %0, i64 noundef %1, i64 noundef %2, i64 noundef %3, i32 noundef %4) #0 {
  %6 = alloca ptr, align 8
  %7 = alloca i64, align 8
  %8 = alloca i64, align 8
  %9 = alloca i64, align 8
  %10 = alloca i32, align 4
  %11 = alloca ptr, align 8
  %12 = alloca i64, align 8
  %13 = alloca i32, align 4
  %14 = alloca i8, align 1
  %15 = alloca i32, align 4
  store ptr %0, ptr %6, align 8
  store i64 %1, ptr %7, align 8
  store i64 %2, ptr %8, align 8
  store i64 %3, ptr %9, align 8
  store i32 %4, ptr %10, align 4
  store i32 1, ptr %13, align 4
  store i8 0, ptr %14, align 1
  store i64 0, ptr %12, align 8
  br label %16

16:                                               ; preds = %176, %5
  %17 = load i64, ptr %12, align 8
  %18 = load ptr, ptr %6, align 8
  %19 = getelementptr inbounds %struct.H5O_pline_t, ptr %18, i32 0, i32 3
  %20 = load i64, ptr %19, align 8
  %21 = icmp ult i64 %17, %20
  br i1 %21, label %22, label %179

22:                                               ; preds = %16
  %23 = load ptr, ptr %6, align 8
  %24 = getelementptr inbounds %struct.H5O_pline_t, ptr %23, i32 0, i32 4
  %25 = load ptr, ptr %24, align 8
  %26 = load i64, ptr %12, align 8
  %27 = getelementptr inbounds %struct.H5Z_filter_info_t, ptr %25, i64 %26
  %28 = getelementptr inbounds %struct.H5Z_filter_info_t, ptr %27, i32 0, i32 0
  %29 = load i32, ptr %28, align 8
  %30 = call ptr @H5Z_find(i32 noundef %29)
  store ptr %30, ptr %11, align 8
  %31 = icmp eq ptr null, %30
  br i1 %31, label %32, label %60

32:                                               ; preds = %22
  %33 = load ptr, ptr %6, align 8
  %34 = getelementptr inbounds %struct.H5O_pline_t, ptr %33, i32 0, i32 4
  %35 = load ptr, ptr %34, align 8
  %36 = load i64, ptr %12, align 8
  %37 = getelementptr inbounds %struct.H5Z_filter_info_t, ptr %35, i64 %36
  %38 = getelementptr inbounds %struct.H5Z_filter_info_t, ptr %37, i32 0, i32 1
  %39 = load i32, ptr %38, align 4
  %40 = and i32 %39, 1
  %41 = icmp ne i32 %40, 0
  br i1 %41, label %42, label %44

42:                                               ; preds = %32
  %43 = call i32 @H5E_clear_stack()
  br label %59

44:                                               ; preds = %32
  br label %45

45:                                               ; preds = %44
  br label %46

46:                                               ; preds = %45
  br label %47

47:                                               ; preds = %46
  %48 = load i64, ptr @H5E_PLINE_g, align 8
  %49 = load i64, ptr @H5E_NOTFOUND_g, align 8
  %50 = call i32 (ptr, ptr, i32, i64, i64, ptr, ...) @H5E_printf_stack(ptr noundef @.str, ptr noundef @__func__.H5Z__prelude_callback, i32 noundef 786, i64 noundef %48, i64 noundef %49, ptr noundef @.str.59)
  br label %51

51:                                               ; preds = %47
  store i8 1, ptr %14, align 1
  %52 = load i8, ptr %14, align 1
  %53 = trunc i8 %52 to i1
  %54 = zext i1 %53 to i8
  store i8 %54, ptr %14, align 1
  br label %55

55:                                               ; preds = %51
  br label %56

56:                                               ; preds = %55
  store i32 -1, ptr %13, align 4
  br label %180

57:                                               ; No predecessors!
  br label %58

58:                                               ; preds = %57
  br label %59

59:                                               ; preds = %58, %42
  br label %175

60:                                               ; preds = %22
  %61 = load i32, ptr %10, align 4
  switch i32 %61, label %173 [
    i32 0, label %62
    i32 1, label %142
  ]

62:                                               ; preds = %60
  %63 = load ptr, ptr %11, align 8
  %64 = getelementptr inbounds %struct.H5Z_class2_t, ptr %63, i32 0, i32 2
  %65 = load i32, ptr %64, align 8
  %66 = icmp ne i32 %65, 0
  br i1 %66, label %82, label %67

67:                                               ; preds = %62
  br label %68

68:                                               ; preds = %67
  br label %69

69:                                               ; preds = %68
  br label %70

70:                                               ; preds = %69
  %71 = load i64, ptr @H5E_PLINE_g, align 8
  %72 = load i64, ptr @H5E_NOENCODER_g, align 8
  %73 = call i32 (ptr, ptr, i32, i64, i64, ptr, ...) @H5E_printf_stack(ptr noundef @.str, ptr noundef @__func__.H5Z__prelude_callback, i32 noundef 795, i64 noundef %71, i64 noundef %72, ptr noundef @.str.60)
  br label %74

74:                                               ; preds = %70
  store i8 1, ptr %14, align 1
  %75 = load i8, ptr %14, align 1
  %76 = trunc i8 %75 to i1
  %77 = zext i1 %76 to i8
  store i8 %77, ptr %14, align 1
  br label %78

78:                                               ; preds = %74
  br label %79

79:                                               ; preds = %78
  store i32 -1, ptr %13, align 4
  br label %180

80:                                               ; No predecessors!
  br label %81

81:                                               ; preds = %80
  br label %82

82:                                               ; preds = %81, %62
  %83 = load ptr, ptr %11, align 8
  %84 = getelementptr inbounds %struct.H5Z_class2_t, ptr %83, i32 0, i32 5
  %85 = load ptr, ptr %84, align 8
  %86 = icmp ne ptr %85, null
  br i1 %86, label %87, label %141

87:                                               ; preds = %82
  %88 = load ptr, ptr %11, align 8
  %89 = getelementptr inbounds %struct.H5Z_class2_t, ptr %88, i32 0, i32 5
  %90 = load ptr, ptr %89, align 8
  %91 = load i64, ptr %7, align 8
  %92 = load i64, ptr %8, align 8
  %93 = load i64, ptr %9, align 8
  %94 = call i32 %90(i64 noundef %91, i64 noundef %92, i64 noundef %93)
  store i32 %94, ptr %15, align 4
  %95 = load i32, ptr %15, align 4
  %96 = icmp slt i32 %95, 0
  br i1 %96, label %97, label %112

97:                                               ; preds = %87
  br label %98

98:                                               ; preds = %97
  br label %99

99:                                               ; preds = %98
  br label %100

100:                                              ; preds = %99
  %101 = load i64, ptr @H5E_PLINE_g, align 8
  %102 = load i64, ptr @H5E_CANAPPLY_g, align 8
  %103 = call i32 (ptr, ptr, i32, i64, i64, ptr, ...) @H5E_printf_stack(ptr noundef @.str, ptr noundef @__func__.H5Z__prelude_callback, i32 noundef 804, i64 noundef %101, i64 noundef %102, ptr noundef @.str.61)
  br label %104

104:                                              ; preds = %100
  store i8 1, ptr %14, align 1
  %105 = load i8, ptr %14, align 1
  %106 = trunc i8 %105 to i1
  %107 = zext i1 %106 to i8
  store i8 %107, ptr %14, align 1
  br label %108

108:                                              ; preds = %104
  br label %109

109:                                              ; preds = %108
  store i32 -1, ptr %13, align 4
  br label %180

110:                                              ; No predecessors!
  br label %111

111:                                              ; preds = %110
  br label %112

112:                                              ; preds = %111, %87
  %113 = load i32, ptr %15, align 4
  %114 = icmp eq i32 %113, 0
  br i1 %114, label %115, label %140

115:                                              ; preds = %112
  %116 = load ptr, ptr %6, align 8
  %117 = getelementptr inbounds %struct.H5O_pline_t, ptr %116, i32 0, i32 4
  %118 = load ptr, ptr %117, align 8
  %119 = load i64, ptr %12, align 8
  %120 = getelementptr inbounds %struct.H5Z_filter_info_t, ptr %118, i64 %119
  %121 = getelementptr inbounds %struct.H5Z_filter_info_t, ptr %120, i32 0, i32 1
  %122 = load i32, ptr %121, align 4
  %123 = and i32 %122, 1
  %124 = icmp ne i32 %123, 0
  br i1 %124, label %140, label %125

125:                                              ; preds = %115
  br label %126

126:                                              ; preds = %125
  br label %127

127:                                              ; preds = %126
  br label %128

128:                                              ; preds = %127
  %129 = load i64, ptr @H5E_PLINE_g, align 8
  %130 = load i64, ptr @H5E_CANAPPLY_g, align 8
  %131 = call i32 (ptr, ptr, i32, i64, i64, ptr, ...) @H5E_printf_stack(ptr noundef @.str, ptr noundef @__func__.H5Z__prelude_callback, i32 noundef 809, i64 noundef %129, i64 noundef %130, ptr noundef @.str.62)
  br label %132

132:                                              ; preds = %128
  store i8 1, ptr %14, align 1
  %133 = load i8, ptr %14, align 1
  %134 = trunc i8 %133 to i1
  %135 = zext i1 %134 to i8
  store i8 %135, ptr %14, align 1
  br label %136

136:                                              ; preds = %132
  br label %137

137:                                              ; preds = %136
  store i32 -1, ptr %13, align 4
  br label %180

138:                                              ; No predecessors!
  br label %139

139:                                              ; preds = %138
  br label %140

140:                                              ; preds = %139, %115, %112
  br label %141

141:                                              ; preds = %140, %82
  br label %174

142:                                              ; preds = %60
  %143 = load ptr, ptr %11, align 8
  %144 = getelementptr inbounds %struct.H5Z_class2_t, ptr %143, i32 0, i32 6
  %145 = load ptr, ptr %144, align 8
  %146 = icmp ne ptr %145, null
  br i1 %146, label %147, label %172

147:                                              ; preds = %142
  %148 = load ptr, ptr %11, align 8
  %149 = getelementptr inbounds %struct.H5Z_class2_t, ptr %148, i32 0, i32 6
  %150 = load ptr, ptr %149, align 8
  %151 = load i64, ptr %7, align 8
  %152 = load i64, ptr %8, align 8
  %153 = load i64, ptr %9, align 8
  %154 = call i32 %150(i64 noundef %151, i64 noundef %152, i64 noundef %153)
  %155 = icmp slt i32 %154, 0
  br i1 %155, label %156, label %171

156:                                              ; preds = %147
  br label %157

157:                                              ; preds = %156
  br label %158

158:                                              ; preds = %157
  br label %159

159:                                              ; preds = %158
  %160 = load i64, ptr @H5E_PLINE_g, align 8
  %161 = load i64, ptr @H5E_SETLOCAL_g, align 8
  %162 = call i32 (ptr, ptr, i32, i64, i64, ptr, ...) @H5E_printf_stack(ptr noundef @.str, ptr noundef @__func__.H5Z__prelude_callback, i32 noundef 819, i64 noundef %160, i64 noundef %161, ptr noundef @.str.61)
  br label %163

163:                                              ; preds = %159
  store i8 1, ptr %14, align 1
  %164 = load i8, ptr %14, align 1
  %165 = trunc i8 %164 to i1
  %166 = zext i1 %165 to i8
  store i8 %166, ptr %14, align 1
  br label %167

167:                                              ; preds = %163
  br label %168

168:                                              ; preds = %167
  store i32 -1, ptr %13, align 4
  br label %180

169:                                              ; No predecessors!
  br label %170

170:                                              ; preds = %169
  br label %171

171:                                              ; preds = %170, %147
  br label %172

172:                                              ; preds = %171, %142
  br label %174

173:                                              ; preds = %60
  br label %174

174:                                              ; preds = %173, %172, %141
  br label %175

175:                                              ; preds = %174, %59
  br label %176

176:                                              ; preds = %175
  %177 = load i64, ptr %12, align 8
  %178 = add i64 %177, 1
  store i64 %178, ptr %12, align 8
  br label %16

179:                                              ; preds = %16
  br label %180

180:                                              ; preds = %179, %168, %137, %109, %79, %56
  %181 = load i32, ptr %13, align 4
  ret i32 %181
}