; Function Attrs: nounwind uwtable
define internal fastcc range(i32 -1, 2) i32 @H5Z__prelude_callback(ptr nocapture noundef readonly %0, i64 noundef %1, i64 noundef %2, i64 noundef %3, i32 noundef %4) unnamed_addr #0 {
  %6 = getelementptr inbounds i8, ptr %0, i64 56
  %7 = load i64, ptr %6, align 8
  %.not46 = icmp eq i64 %7, 0
  br i1 %.not46, label %.loopexit, label %.lr.ph

.lr.ph:                                           ; preds = %5
  %8 = getelementptr inbounds i8, ptr %0, i64 64
  %switch = icmp eq i32 %4, 0
  br i1 %switch, label %.lr.ph.split.us, label %.lr.ph.split

.lr.ph.split.us:                                  ; preds = %.lr.ph, %47
  %.039.us = phi i64 [ %48, %47 ], [ 0, %.lr.ph ]
  %9 = load ptr, ptr %8, align 8
  %10 = getelementptr inbounds %struct.H5Z_filter_info_t, ptr %9, i64 %.039.us
  %11 = load i32, ptr %10, align 8
  %12 = load i64, ptr @H5Z_table_used_g, align 8
  %.not.i.i.us = icmp eq i64 %12, 0
  br i1 %.not.i.i.us, label %.loopexit52, label %.lr.ph.i.i.us

.lr.ph.i.i.us:                                    ; preds = %.lr.ph.split.us
  %13 = load ptr, ptr @H5Z_table_g, align 8
  br label %14

14:                                               ; preds = %18, %.lr.ph.i.i.us
  %.068.i.i.us = phi i64 [ 0, %.lr.ph.i.i.us ], [ %19, %18 ]
  %15 = getelementptr inbounds %struct.H5Z_class2_t, ptr %13, i64 %.068.i.i.us, i32 1
  %16 = load i32, ptr %15, align 4
  %17 = icmp eq i32 %16, %11
  br i1 %17, label %H5Z__find_idx.exit.i.us, label %18

18:                                               ; preds = %14
  %19 = add nuw i64 %.068.i.i.us, 1
  %exitcond.not.i.i.us = icmp eq i64 %19, %12
  br i1 %exitcond.not.i.i.us, label %.loopexit52, label %14

H5Z__find_idx.exit.i.us:                          ; preds = %14
  %20 = and i64 %.068.i.i.us, 2147483648
  %.not.i.us = icmp eq i64 %20, 0
  br i1 %.not.i.us, label %21, label %.loopexit52

21:                                               ; preds = %H5Z__find_idx.exit.i.us
  %22 = and i64 %.068.i.i.us, 2147483647
  %23 = getelementptr inbounds %struct.H5Z_class2_t, ptr %13, i64 %22
  %24 = getelementptr inbounds i8, ptr %23, i64 8
  %25 = load i32, ptr %24, align 8
  %.not33.us = icmp eq i32 %25, 0
  br i1 %.not33.us, label %.split.us, label %26

26:                                               ; preds = %21
  %27 = getelementptr inbounds i8, ptr %23, i64 24
  %28 = load ptr, ptr %27, align 8
  %.not34.us = icmp eq ptr %28, null
  br i1 %.not34.us, label %47, label %29

29:                                               ; preds = %26
  %30 = tail call i32 %28(i64 noundef %1, i64 noundef %2, i64 noundef %3) #9
  %31 = icmp slt i32 %30, 0
  br i1 %31, label %.split41.us, label %32

32:                                               ; preds = %29
  %33 = icmp eq i32 %30, 0
  br i1 %33, label %34, label %47

34:                                               ; preds = %32
  %35 = load ptr, ptr %8, align 8
  %36 = getelementptr inbounds %struct.H5Z_filter_info_t, ptr %35, i64 %.039.us, i32 1
  %37 = load i32, ptr %36, align 4
  %38 = and i32 %37, 1
  %.not35.us = icmp eq i32 %38, 0
  br i1 %.not35.us, label %.split43.us, label %47

.loopexit52:                                      ; preds = %18, %.lr.ph.split.us, %H5Z__find_idx.exit.i.us
  %39 = load i64, ptr @H5E_PLINE_g, align 8
  %40 = load i64, ptr @H5E_NOTFOUND_g, align 8
  %41 = tail call i32 (ptr, ptr, i32, i64, i64, ptr, ...) @H5E_printf_stack(ptr noundef nonnull @.str, ptr noundef nonnull @__func__.H5Z_find, i32 noundef 1311, i64 noundef %39, i64 noundef %40, ptr noundef nonnull @.str.32, i32 noundef %11) #9
  %.pre51 = load ptr, ptr %8, align 8
  %42 = getelementptr inbounds %struct.H5Z_filter_info_t, ptr %.pre51, i64 %.039.us, i32 1
  %43 = load i32, ptr %42, align 4
  %44 = and i32 %43, 1
  %.not36.us = icmp eq i32 %44, 0
  br i1 %.not36.us, label %.split45.us, label %45

45:                                               ; preds = %.loopexit52
  %46 = tail call i32 @H5E_clear_stack() #9
  br label %47

47:                                               ; preds = %45, %34, %32, %26
  %48 = add nuw i64 %.039.us, 1
  %49 = load i64, ptr %6, align 8
  %50 = icmp ult i64 %48, %49
  br i1 %50, label %.lr.ph.split.us, label %.loopexit

.lr.ph.split:                                     ; preds = %.lr.ph, %93
  %.039 = phi i64 [ %94, %93 ], [ 0, %.lr.ph ]
  %51 = load ptr, ptr %8, align 8
  %52 = getelementptr inbounds %struct.H5Z_filter_info_t, ptr %51, i64 %.039
  %53 = load i32, ptr %52, align 8
  %54 = load i64, ptr @H5Z_table_used_g, align 8
  %.not.i.i = icmp eq i64 %54, 0
  br i1 %.not.i.i, label %.loopexit53, label %.lr.ph.i.i

.lr.ph.i.i:                                       ; preds = %.lr.ph.split
  %55 = load ptr, ptr @H5Z_table_g, align 8
  br label %56

56:                                               ; preds = %60, %.lr.ph.i.i
  %.068.i.i = phi i64 [ 0, %.lr.ph.i.i ], [ %61, %60 ]
  %57 = getelementptr inbounds %struct.H5Z_class2_t, ptr %55, i64 %.068.i.i, i32 1
  %58 = load i32, ptr %57, align 4
  %59 = icmp eq i32 %58, %53
  br i1 %59, label %H5Z__find_idx.exit.i, label %60

60:                                               ; preds = %56
  %61 = add nuw i64 %.068.i.i, 1
  %exitcond.not.i.i = icmp eq i64 %61, %54
  br i1 %exitcond.not.i.i, label %.loopexit53, label %56

H5Z__find_idx.exit.i:                             ; preds = %56
  %62 = and i64 %.068.i.i, 2147483648
  %.not.i = icmp eq i64 %62, 0
  br i1 %.not.i, label %H5Z_find.exit, label %.loopexit53

.loopexit53:                                      ; preds = %60, %H5Z__find_idx.exit.i, %.lr.ph.split
  %63 = load i64, ptr @H5E_PLINE_g, align 8
  %64 = load i64, ptr @H5E_NOTFOUND_g, align 8
  %65 = tail call i32 (ptr, ptr, i32, i64, i64, ptr, ...) @H5E_printf_stack(ptr noundef nonnull @.str, ptr noundef nonnull @__func__.H5Z_find, i32 noundef 1311, i64 noundef %63, i64 noundef %64, ptr noundef nonnull @.str.32, i32 noundef %53) #9
  %.pre = load ptr, ptr %8, align 8
  %66 = getelementptr inbounds %struct.H5Z_filter_info_t, ptr %.pre, i64 %.039, i32 1
  %67 = load i32, ptr %66, align 4
  %68 = and i32 %67, 1
  %.not36 = icmp eq i32 %68, 0
  br i1 %.not36, label %.split45.us, label %69

69:                                               ; preds = %.loopexit53
  %70 = tail call i32 @H5E_clear_stack() #9
  br label %93

.split45.us:                                      ; preds = %.loopexit53, %.loopexit52
  %71 = load i64, ptr @H5E_PLINE_g, align 8
  %72 = load i64, ptr @H5E_NOTFOUND_g, align 8
  %73 = tail call i32 (ptr, ptr, i32, i64, i64, ptr, ...) @H5E_printf_stack(ptr noundef nonnull @.str, ptr noundef nonnull @__func__.H5Z__prelude_callback, i32 noundef 786, i64 noundef %71, i64 noundef %72, ptr noundef nonnull @.str.59) #9
  br label %.loopexit

H5Z_find.exit:                                    ; preds = %H5Z__find_idx.exit.i
  %74 = and i64 %.068.i.i, 2147483647
  %75 = getelementptr inbounds %struct.H5Z_class2_t, ptr %55, i64 %74, i32 6
  %76 = load ptr, ptr %75, align 8
  %.not = icmp eq ptr %76, null
  br i1 %.not, label %93, label %86

.split.us:                                        ; preds = %21
  %77 = load i64, ptr @H5E_PLINE_g, align 8
  %78 = load i64, ptr @H5E_NOENCODER_g, align 8
  %79 = tail call i32 (ptr, ptr, i32, i64, i64, ptr, ...) @H5E_printf_stack(ptr noundef nonnull @.str, ptr noundef nonnull @__func__.H5Z__prelude_callback, i32 noundef 795, i64 noundef %77, i64 noundef %78, ptr noundef nonnull @.str.60) #9
  br label %.loopexit

.split41.us:                                      ; preds = %29
  %80 = load i64, ptr @H5E_PLINE_g, align 8
  %81 = load i64, ptr @H5E_CANAPPLY_g, align 8
  %82 = tail call i32 (ptr, ptr, i32, i64, i64, ptr, ...) @H5E_printf_stack(ptr noundef nonnull @.str, ptr noundef nonnull @__func__.H5Z__prelude_callback, i32 noundef 804, i64 noundef %80, i64 noundef %81, ptr noundef nonnull @.str.61) #9
  br label %.loopexit

.split43.us:                                      ; preds = %34
  %83 = load i64, ptr @H5E_PLINE_g, align 8
  %84 = load i64, ptr @H5E_CANAPPLY_g, align 8
  %85 = tail call i32 (ptr, ptr, i32, i64, i64, ptr, ...) @H5E_printf_stack(ptr noundef nonnull @.str, ptr noundef nonnull @__func__.H5Z__prelude_callback, i32 noundef 809, i64 noundef %83, i64 noundef %84, ptr noundef nonnull @.str.62) #9
  br label %.loopexit

86:                                               ; preds = %H5Z_find.exit
  %87 = tail call i32 %76(i64 noundef %1, i64 noundef %2, i64 noundef %3) #9
  %88 = icmp slt i32 %87, 0
  br i1 %88, label %89, label %93

89:                                               ; preds = %86
  %90 = load i64, ptr @H5E_PLINE_g, align 8
  %91 = load i64, ptr @H5E_SETLOCAL_g, align 8
  %92 = tail call i32 (ptr, ptr, i32, i64, i64, ptr, ...) @H5E_printf_stack(ptr noundef nonnull @.str, ptr noundef nonnull @__func__.H5Z__prelude_callback, i32 noundef 819, i64 noundef %90, i64 noundef %91, ptr noundef nonnull @.str.61) #9
  br label %.loopexit

93:                                               ; preds = %69, %H5Z_find.exit, %86
  %94 = add nuw i64 %.039, 1
  %95 = load i64, ptr %6, align 8
  %96 = icmp ult i64 %94, %95
  br i1 %96, label %.lr.ph.split, label %.loopexit

.loopexit:                                        ; preds = %93, %47, %5, %89, %.split43.us, %.split41.us, %.split.us, %.split45.us
  %.028 = phi i32 [ -1, %.split45.us ], [ -1, %89 ], [ -1, %.split41.us ], [ -1, %.split43.us ], [ -1, %.split.us ], [ 1, %5 ], [ 1, %47 ], [ 1, %93 ]
  ret i32 %.028
}